; Function Attrs: mustprogress uwtable
define void @_ZN7rocksdb19TestFSGetDirAndNameERKNSt7__cxx1112basic_stringIcSt11char_traitsIcESaIcEEE(ptr noalias sret(%"struct.std::pair") align 8 %agg.result, ptr noundef nonnull align 8 dereferenceable(32) %name) local_unnamed_addr #2 personality ptr @__gxx_personality_v0 {
entry:
  %dirname = alloca %"class.std::__cxx11::basic_string", align 8
  %agg.tmp = alloca %"class.std::__cxx11::basic_string", align 8
  %fname = alloca %"class.std::__cxx11::basic_string", align 8
  call void @_ZNSt7__cxx1112basic_stringIcSt11char_traitsIcESaIcEEC1ERKS4_(ptr noundef nonnull align 8 dereferenceable(32) %agg.tmp, ptr noundef nonnull align 8 dereferenceable(32) %name)
  invoke void @_ZN7rocksdb16TestFSGetDirNameENSt7__cxx1112basic_stringIcSt11char_traitsIcESaIcEEE(ptr nonnull sret(%"class.std::__cxx11::basic_string") align 8 %dirname, ptr noundef nonnull %agg.tmp)
          to label %invoke.cont unwind label %lpad

invoke.cont:                                      ; preds = %entry
  call void @_ZNSt7__cxx1112basic_stringIcSt11char_traitsIcESaIcEED1Ev(ptr noundef nonnull align 8 dereferenceable(32) %agg.tmp) #21
  %call = call noundef i64 @_ZNKSt7__cxx1112basic_stringIcSt11char_traitsIcESaIcEE4sizeEv(ptr noundef nonnull align 8 dereferenceable(32) %dirname) #21
  %add = add i64 %call, 1
  invoke void @_ZNKSt7__cxx1112basic_stringIcSt11char_traitsIcESaIcEE6substrEmm(ptr nonnull sret(%"class.std::__cxx11::basic_string") align 8 %fname, ptr noundef nonnull align 8 dereferenceable(32) %name, i64 noundef %add, i64 noundef -1)
          to label %invoke.cont2 unwind label %lpad1

invoke.cont2:                                     ; preds = %invoke.cont
  invoke void @_ZNSt7__cxx1112basic_stringIcSt11char_traitsIcESaIcEEC1ERKS4_(ptr noundef nonnull align 8 dereferenceable(32) %agg.result, ptr noundef nonnull align 8 dereferenceable(32) %dirname)
          to label %.noexc unwind label %lpad3

.noexc:                                           ; preds = %invoke.cont2
  %second.i.i = getelementptr inbounds i8, ptr %agg.result, i64 32
  invoke void @_ZNSt7__cxx1112basic_stringIcSt11char_traitsIcESaIcEEC1ERKS4_(ptr noundef nonnull align 8 dereferenceable(32) %second.i.i, ptr noundef nonnull align 8 dereferenceable(32) %fname)
          to label %invoke.cont4 unwind label %lpad.i.i

lpad.i.i:                                         ; preds = %.noexc
  %0 = landingpad { ptr, i32 }
          cleanup
  call void @_ZNSt7__cxx1112basic_stringIcSt11char_traitsIcESaIcEED1Ev(ptr noundef nonnull align 8 dereferenceable(32) %agg.result) #21
  br label %lpad3.body

invoke.cont4:                                     ; preds = %.noexc
  call void @_ZNSt7__cxx1112basic_stringIcSt11char_traitsIcESaIcEED1Ev(ptr noundef nonnull align 8 dereferenceable(32) %fname) #21
  call void @_ZNSt7__cxx1112basic_stringIcSt11char_traitsIcESaIcEED1Ev(ptr noundef nonnull align 8 dereferenceable(32) %dirname) #21
  ret void

lpad:                                             ; preds = %entry
  %1 = landingpad { ptr, i32 }
          cleanup
  br label %eh.resume

lpad1:                                            ; preds = %invoke.cont
  %2 = landingpad { ptr, i32 }
          cleanup
  br label %eh.resume

lpad3:                                            ; preds = %invoke.cont2
  %3 = landingpad { ptr, i32 }
          cleanup
  br label %lpad3.body

lpad3.body:                                       ; preds = %lpad.i.i, %lpad3
  %eh.lpad-body = phi { ptr, i32 } [ %3, %lpad3 ], [ %0, %lpad.i.i ]
  call void @_ZNSt7__cxx1112basic_stringIcSt11char_traitsIcESaIcEED1Ev(ptr noundef nonnull align 8 dereferenceable(32) %fname) #21
  br label %eh.resume

eh.resume:                                        ; preds = %lpad1, %lpad3.body, %lpad
  %dirname.sink = phi ptr [ %agg.tmp, %lpad ], [ %dirname, %lpad3.body ], [ %dirname, %lpad1 ]
  %.pn.pn = phi { ptr, i32 } [ %1, %lpad ], [ %eh.lpad-body, %lpad3.body ], [ %2, %lpad1 ]
  call void @_ZNSt7__cxx1112basic_stringIcSt11char_traitsIcESaIcEED1Ev(ptr noundef nonnull align 8 dereferenceable(32) %dirname.sink) #21
  resume { ptr, i32 } %.pn.pn
}